Certificate:
    Data:
        Version: 3 (0x2)
        Serial Number: 4097 (0x1001)
    Signature Algorithm: sha256WithRSAEncryption
        Issuer: C=US, ST=PENN, L=STATE, O=seedpkilab2018.com, OU=seed, CN=seedpkilab2018.com/emailAddress=seedpkilab2018@com
        Validity
            Not Before: Sep 29 03:13:06 2019 GMT
            Not After : Sep 28 03:13:06 2020 GMT
        Subject: C=US, ST=PENN, O=seedpkilab2018.com, OU=seed, CN=seedpkilab2018.com/emailAddress=seedpkilab2018@com
        Subject Public Key Info:
            Public Key Algorithm: rsaEncryption
                Public-Key: (1024 bit)
                Modulus:
                    00:ca:7d:d0:3c:57:66:85:4e:41:b8:a4:d1:67:35:
                    7d:cf:74:28:4d:d1:47:3c:31:52:81:bd:3c:cb:ce:
                    e6:4a:08:f2:76:91:7b:55:32:ff:68:d3:f9:66:ac:
                    52:02:f1:34:9b:ca:dd:21:8f:cb:c6:1a:c5:f0:fe:
                    98:f4:ee:2a:39:7d:a1:6d:0f:0f:bd:51:33:d8:11:
                    b2:a5:4a:88:a7:b8:f7:97:8e:70:ed:74:2d:b4:0d:
                    e4:3c:2d:2e:73:7b:7f:d6:48:29:98:8f:c7:22:a8:
                    fb:ad:f7:66:70:39:32:de:20:91:92:2e:a9:be:7e:
                    c0:c4:86:40:59:fd:22:72:45
                Exponent: 65537 (0x10001)
        X509v3 extensions:
            X509v3 Basic Constraints: 
                CA:FALSE
            Netscape Comment: 
                OpenSSL Generated Certificate
            X509v3 Subject Key Identifier: 
                D7:BF:73:D9:7F:34:1B:A2:B8:63:56:27:84:BA:FC:26:8D:43:50:80
            X509v3 Authority Key Identifier: 
                keyid:04:CF:18:85:0C:62:3D:B4:98:09:04:EF:27:2B:61:D9:CF:E9:01:F9

    Signature Algorithm: sha256WithRSAEncryption
         6e:99:89:25:25:87:1f:f0:0d:34:53:88:d4:ea:aa:7e:3d:3d:
         bd:09:95:24:87:a6:17:7a:32:62:23:8d:cf:ba:2b:cf:58:c1:
         43:4c:a6:58:5b:81:da:e0:09:5c:b5:02:e7:42:d0:fb:65:9e:
         0c:c5:38:ce:ab:31:68:f4:f5:99:25:ff:bb:94:90:36:89:09:
         e7:2b:77:ca:fa:8f:80:33:d8:80:a2:e1:6e:ff:98:41:6e:b2:
         8f:8f:6e:33:27:89:86:81:f3:9f:32:be:8c:a5:9c:8e:b6:86:
         bc:ad:76:f1:8f:83:f7:b4:94:3e:fa:1a:cb:c1:d3:5a:64:6a:
         ba:ca:3a:eb:ed:1b:f2:b4:e8:31:3a:6b:45:ad:60:47:52:db:
         8c:62:09:c1:a4:d2:cb:07:80:b9:4b:ae:c4:8b:ca:74:1a:1f:
         cc:2e:79:69:fa:75:f3:e5:bd:9b:53:d9:65:c4:0e:7b:76:62:
         1d:1a:a1:ab:25:42:fd:e1:46:00:21:24:f0:87:73:fc:21:5a:
         c8:56:54:f6:6a:50:47:6c:25:ba:49:1b:64:10:fc:6c:62:6a:
         22:db:ad:ee:53:e1:ea:59:25:eb:82:b9:a3:3d:7c:df:6e:e6:
         f1:88:b9:93:fa:97:9d:50:70:a2:a6:0c:a4:4d:65:a8:25:50:
         d3:36:e5:0c
-----BEGIN CERTIFICATE-----
MIIDlTCCAn2gAwIBAgICEAEwDQYJKoZIhvcNAQELBQAwgZgxCzAJBgNVBAYTAlVT
MQ0wCwYDVQQIDARQRU5OMQ4wDAYDVQQHDAVTVEFURTEbMBkGA1UECgwSc2VlZHBr
aWxhYjIwMTguY29tMQ0wCwYDVQQLDARzZWVkMRswGQYDVQQDDBJzZWVkcGtpbGFi
MjAxOC5jb20xITAfBgkqhkiG9w0BCQEWEnNlZWRwa2lsYWIyMDE4QGNvbTAeFw0x
OTA5MjkwMzEzMDZaFw0yMDA5MjgwMzEzMDZaMIGIMQswCQYDVQQGEwJVUzENMAsG
A1UECAwEUEVOTjEbMBkGA1UECgwSc2VlZHBraWxhYjIwMTguY29tMQ0wCwYDVQQL
DARzZWVkMRswGQYDVQQDDBJzZWVkcGtpbGFiMjAxOC5jb20xITAfBgkqhkiG9w0B
CQEWEnNlZWRwa2lsYWIyMDE4QGNvbTCBnzANBgkqhkiG9w0BAQEFAAOBjQAwgYkC
gYEAyn3QPFdmhU5BuKTRZzV9z3QoTdFHPDFSgb08y87mSgjydpF7VTL/aNP5ZqxS
AvE0m8rdIY/LxhrF8P6Y9O4qOX2hbQ8PvVEz2BGypUqIp7j3l45w7XQttA3kPC0u
c3t/1kgpmI/HIqj7rfdmcDky3iCRki6pvn7AxIZAWf0ickUCAwEAAaN7MHkwCQYD
VR0TBAIwADAsBglghkgBhvhCAQ0EHxYdT3BlblNTTCBHZW5lcmF0ZWQgQ2VydGlm
aWNhdGUwHQYDVR0OBBYEFNe/c9l/NBuiuGNWJ4S6/CaNQ1CAMB8GA1UdIwQYMBaA
FATPGIUMYj20mAkE7ycrYdnP6QH5MA0GCSqGSIb3DQEBCwUAA4IBAQBumYklJYcf
8A00U4jU6qp+PT29CZUkh6YXejJiI43PuivPWMFDTKZYW4Ha4AlctQLnQtD7ZZ4M
xTjOqzFo9PWZJf+7lJA2iQnnK3fK+o+AM9iAouFu/5hBbrKPj24zJ4mGgfOfMr6M
pZyOtoa8rXbxj4P3tJQ++hrLwdNaZGq6yjrr7RvytOgxOmtFrWBHUtuMYgnBpNLL
B4C5S67Ei8p0Gh/MLnlp+nXz5b2bU9llxA57dmIdGqGrJUL94UYAISTwh3P8IVrI
VlT2alBHbCW6SRtkEPxsYmoi263uU+HqWSXrgrmjPXzfbubxiLmT+pedUHCipgyk
TWWoJVDTNuUM
-----END CERTIFICATE-----
